target datalayout = "e-m:e-p270:32:32-p271:32:32-p272:64:64-i64:64-i128:128-f80:128-n8:16:32:64-S128"
target triple = "x86_64-pc-linux-gnu"

%struct.URLContext = type { ptr, ptr, ptr, ptr, i32, i32, i32, i32, %struct.AVIOInterruptCB, i64, ptr, ptr, i32 }
%struct.AVIOInterruptCB = type { ptr, ptr }
%struct.MMSTContext = type { %struct.MMSContext, i32, [256 x i8], [128 x i8], i32, i32, i32, i32 }
%struct.MMSContext = type { ptr, ptr, ptr, [512 x i8], [65536 x i8], ptr, i32, ptr, i32, i32, i32, i32, i32, i32 }

@.str.1 = private unnamed_addr constant [4 x i8] c"tcp\00", align 1
@.str.2 = private unnamed_addr constant [53 x i8] c"The server does not support MMST (try MMSH or RTSP)\0A\00", align 1
@.str.3 = private unnamed_addr constant [27 x i8] c"asf header parsed failed!\0A\00", align 1
@.str.4 = private unnamed_addr constant [24 x i8] c"Leaving open (success)\0A\00", align 1
@.str.5 = private unnamed_addr constant [28 x i8] c"Leaving open (failure: %d)\0A\00", align 1

; Function Attrs: nounwind uwtable
define internal void @clear_stream_buffers(ptr noundef %0) #0 {
  %2 = alloca ptr, align 8
  store ptr %0, ptr %2, align 8, !tbaa !22
  %3 = load ptr, ptr %2, align 8, !tbaa !22
  %4 = getelementptr inbounds nuw %struct.MMSContext, ptr %3, i32 0, i32 6
  store i32 0, ptr %4, align 8, !tbaa !38
  %5 = load ptr, ptr %2, align 8, !tbaa !22
  %6 = getelementptr inbounds nuw %struct.MMSContext, ptr %5, i32 0, i32 4
  %7 = getelementptr inbounds [65536 x i8], ptr %6, i64 0, i64 0
  %8 = load ptr, ptr %2, align 8, !tbaa !22
  %9 = getelementptr inbounds nuw %struct.MMSContext, ptr %8, i32 0, i32 5
  store ptr %7, ptr %9, align 8, !tbaa !42
  ret void
}

; Function Attrs: nounwind uwtable
define internal i32 @mms_open(ptr noundef %0, ptr noundef %1, i32 noundef %2) #0 {
  %4 = alloca i32, align 4
  %5 = alloca ptr, align 8
  %6 = alloca ptr, align 8
  %7 = alloca i32, align 4
  %8 = alloca ptr, align 8
  %9 = alloca ptr, align 8
  %10 = alloca i32, align 4
  %11 = alloca i32, align 4
  %12 = alloca [256 x i8], align 16
  %13 = alloca i32, align 4
  store ptr %0, ptr %5, align 8, !tbaa !4
  store ptr %1, ptr %6, align 8, !tbaa !9
  store i32 %2, ptr %7, align 4, !tbaa !11
  call void @llvm.lifetime.start.p0(i64 8, ptr %8) #8
  %14 = load ptr, ptr %5, align 8, !tbaa !4
  %15 = getelementptr inbounds nuw %struct.URLContext, ptr %14, i32 0, i32 2
  %16 = load ptr, ptr %15, align 8, !tbaa !13
  store ptr %16, ptr %8, align 8, !tbaa !19
  call void @llvm.lifetime.start.p0(i64 8, ptr %9) #8
  call void @llvm.lifetime.start.p0(i64 4, ptr %10) #8
  call void @llvm.lifetime.start.p0(i64 4, ptr %11) #8
  call void @llvm.lifetime.start.p0(i64 256, ptr %12) #8
  %17 = load ptr, ptr %5, align 8, !tbaa !4
  %18 = getelementptr inbounds nuw %struct.URLContext, ptr %17, i32 0, i32 6
  store i32 1, ptr %18, align 8, !tbaa !21
  %19 = load ptr, ptr %8, align 8, !tbaa !19
  %20 = getelementptr inbounds nuw %struct.MMSTContext, ptr %19, i32 0, i32 0
  store ptr %20, ptr %9, align 8, !tbaa !22
  %21 = load ptr, ptr %8, align 8, !tbaa !19
  %22 = getelementptr inbounds nuw %struct.MMSTContext, ptr %21, i32 0, i32 3
  %23 = getelementptr inbounds [128 x i8], ptr %22, i64 0, i64 0
  %24 = load ptr, ptr %8, align 8, !tbaa !19
  %25 = getelementptr inbounds nuw %struct.MMSTContext, ptr %24, i32 0, i32 2
  %26 = getelementptr inbounds [256 x i8], ptr %25, i64 0, i64 0
  %27 = load ptr, ptr %6, align 8, !tbaa !9
  call void @av_url_split(ptr noundef null, i32 noundef 0, ptr noundef null, i32 noundef 0, ptr noundef %23, i32 noundef 128, ptr noundef %10, ptr noundef %26, i32 noundef 256, ptr noundef %27)
  %28 = load i32, ptr %10, align 4, !tbaa !11
  %29 = icmp slt i32 %28, 0
  br i1 %29, label %30, label %31

30:                                               ; preds = %3
  store i32 1755, ptr %10, align 4, !tbaa !11
  br label %31

31:                                               ; preds = %30, %3
  %32 = getelementptr inbounds [256 x i8], ptr %12, i64 0, i64 0
  %33 = load ptr, ptr %8, align 8, !tbaa !19
  %34 = getelementptr inbounds nuw %struct.MMSTContext, ptr %33, i32 0, i32 3
  %35 = getelementptr inbounds [128 x i8], ptr %34, i64 0, i64 0
  %36 = load i32, ptr %10, align 4, !tbaa !11
  %37 = call i32 (ptr, i32, ptr, ptr, ptr, i32, ptr, ...) @ff_url_join(ptr noundef %32, i32 noundef 256, ptr noundef @.str.1, ptr noundef null, ptr noundef %35, i32 noundef %36, ptr noundef null)
  %38 = load ptr, ptr %9, align 8, !tbaa !22
  %39 = getelementptr inbounds nuw %struct.MMSContext, ptr %38, i32 0, i32 0
  %40 = getelementptr inbounds [256 x i8], ptr %12, i64 0, i64 0
  %41 = load ptr, ptr %5, align 8, !tbaa !4
  %42 = getelementptr inbounds nuw %struct.URLContext, ptr %41, i32 0, i32 8
  %43 = load ptr, ptr %5, align 8, !tbaa !4
  %44 = getelementptr inbounds nuw %struct.URLContext, ptr %43, i32 0, i32 10
  %45 = load ptr, ptr %44, align 8, !tbaa !24
  %46 = load ptr, ptr %5, align 8, !tbaa !4
  %47 = getelementptr inbounds nuw %struct.URLContext, ptr %46, i32 0, i32 11
  %48 = load ptr, ptr %47, align 8, !tbaa !25
  %49 = load ptr, ptr %5, align 8, !tbaa !4
  %50 = call i32 @ffurl_open_whitelist(ptr noundef %39, ptr noundef %40, i32 noundef 3, ptr noundef %42, ptr noundef null, ptr noundef %45, ptr noundef %48, ptr noundef %49)
  store i32 %50, ptr %11, align 4, !tbaa !11
  %51 = load i32, ptr %11, align 4, !tbaa !11
  %52 = icmp ne i32 %51, 0
  br i1 %52, label %53, label %54

53:                                               ; preds = %31
  br label %141

54:                                               ; preds = %31
  %55 = load ptr, ptr %8, align 8, !tbaa !19
  %56 = getelementptr inbounds nuw %struct.MMSTContext, ptr %55, i32 0, i32 6
  store i32 3, ptr %56, align 4, !tbaa !26
  %57 = load ptr, ptr %8, align 8, !tbaa !19
  %58 = getelementptr inbounds nuw %struct.MMSTContext, ptr %57, i32 0, i32 7
  store i32 2, ptr %58, align 8, !tbaa !30
  %59 = load ptr, ptr %8, align 8, !tbaa !19
  %60 = call i32 @mms_safe_send_recv(ptr noundef %59, ptr noundef @send_startup_packet, i32 noundef 1)
  store i32 %60, ptr %11, align 4, !tbaa !11
  %61 = load i32, ptr %11, align 4, !tbaa !11
  %62 = icmp ne i32 %61, 0
  br i1 %62, label %63, label %64

63:                                               ; preds = %54
  br label %141

64:                                               ; preds = %54
  %65 = load ptr, ptr %8, align 8, !tbaa !19
  %66 = call i32 @mms_safe_send_recv(ptr noundef %65, ptr noundef @send_time_test_data, i32 noundef 21)
  store i32 %66, ptr %11, align 4, !tbaa !11
  %67 = load i32, ptr %11, align 4, !tbaa !11
  %68 = icmp ne i32 %67, 0
  br i1 %68, label %69, label %70

69:                                               ; preds = %64
  br label %141

70:                                               ; preds = %64
  %71 = load ptr, ptr %8, align 8, !tbaa !19
  %72 = call i32 @mms_safe_send_recv(ptr noundef %71, ptr noundef @send_protocol_select, i32 noundef 2)
  store i32 %72, ptr %11, align 4, !tbaa !11
  %73 = load i32, ptr %11, align 4, !tbaa !11
  %74 = icmp ne i32 %73, 0
  br i1 %74, label %75, label %76

75:                                               ; preds = %70
  br label %141

76:                                               ; preds = %70
  %77 = load ptr, ptr %8, align 8, !tbaa !19
  %78 = call i32 @mms_safe_send_recv(ptr noundef %77, ptr noundef @send_media_file_request, i32 noundef 6)
  store i32 %78, ptr %11, align 4, !tbaa !11
  %79 = load i32, ptr %11, align 4, !tbaa !11
  %80 = icmp ne i32 %79, 0
  br i1 %80, label %81, label %82

81:                                               ; preds = %76
  br label %141

82:                                               ; preds = %76
  %83 = load ptr, ptr %8, align 8, !tbaa !19
  %84 = call i32 @mms_safe_send_recv(ptr noundef %83, ptr noundef @send_media_header_request, i32 noundef 17)
  store i32 %84, ptr %11, align 4, !tbaa !11
  %85 = load i32, ptr %11, align 4, !tbaa !11
  %86 = icmp ne i32 %85, 0
  br i1 %86, label %87, label %88

87:                                               ; preds = %82
  br label %141

88:                                               ; preds = %82
  %89 = load ptr, ptr %8, align 8, !tbaa !19
  %90 = call i32 @mms_safe_send_recv(ptr noundef %89, ptr noundef null, i32 noundef 65536)
  store i32 %90, ptr %11, align 4, !tbaa !11
  %91 = load i32, ptr %11, align 4, !tbaa !11
  %92 = icmp ne i32 %91, 0
  br i1 %92, label %93, label %94

93:                                               ; preds = %88
  br label %141

94:                                               ; preds = %88
  %95 = load ptr, ptr %8, align 8, !tbaa !19
  %96 = getelementptr inbounds nuw %struct.MMSTContext, ptr %95, i32 0, i32 5
  %97 = load i32, ptr %96, align 8, !tbaa !31
  %98 = icmp ne i32 %97, 8
  br i1 %98, label %99, label %106

99:                                               ; preds = %94
  %100 = load ptr, ptr %8, align 8, !tbaa !19
  %101 = getelementptr inbounds nuw %struct.MMSTContext, ptr %100, i32 0, i32 5
  %102 = load i32, ptr %101, align 8, !tbaa !31
  %103 = icmp ne i32 %102, 12
  br i1 %103, label %104, label %106

104:                                              ; preds = %99
  %105 = load ptr, ptr %5, align 8, !tbaa !4
  call void (ptr, i32, ptr, ...) @av_log(ptr noundef %105, i32 noundef 16, ptr noundef @.str.2)
  store i32 -22, ptr %11, align 4, !tbaa !11
  br label %141

106:                                              ; preds = %99, %94
  %107 = load ptr, ptr %9, align 8, !tbaa !22
  %108 = call i32 @ff_mms_asf_header_parser(ptr noundef %107)
  store i32 %108, ptr %11, align 4, !tbaa !11
  %109 = load i32, ptr %11, align 4, !tbaa !11
  %110 = icmp ne i32 %109, 0
  br i1 %110, label %111, label %113

111:                                              ; preds = %106
  %112 = load ptr, ptr %5, align 8, !tbaa !4
  call void (ptr, i32, ptr, ...) @av_log(ptr noundef %112, i32 noundef 56, ptr noundef @.str.3)
  br label %141

113:                                              ; preds = %106
  %114 = load ptr, ptr %9, align 8, !tbaa !22
  %115 = getelementptr inbounds nuw %struct.MMSContext, ptr %114, i32 0, i32 9
  store i32 1, ptr %115, align 4, !tbaa !32
  %116 = load ptr, ptr %9, align 8, !tbaa !22
  %117 = getelementptr inbounds nuw %struct.MMSContext, ptr %116, i32 0, i32 10
  %118 = load i32, ptr %117, align 8, !tbaa !33
  %119 = icmp ne i32 %118, 0
  br i1 %119, label %120, label %125

120:                                              ; preds = %113
  %121 = load ptr, ptr %9, align 8, !tbaa !22
  %122 = getelementptr inbounds nuw %struct.MMSContext, ptr %121, i32 0, i32 12
  %123 = load i32, ptr %122, align 8, !tbaa !34
  %124 = icmp ne i32 %123, 0
  br i1 %124, label %126, label %125

125:                                              ; preds = %120, %113
  br label %141

126:                                              ; preds = %120
  %127 = load ptr, ptr %9, align 8, !tbaa !22
  call void @clear_stream_buffers(ptr noundef %127)
  %128 = load ptr, ptr %8, align 8, !tbaa !19
  %129 = call i32 @mms_safe_send_recv(ptr noundef %128, ptr noundef @send_stream_selection_request, i32 noundef 33)
  store i32 %129, ptr %11, align 4, !tbaa !11
  %130 = load i32, ptr %11, align 4, !tbaa !11
  %131 = icmp ne i32 %130, 0
  br i1 %131, label %132, label %133

132:                                              ; preds = %126
  br label %141

133:                                              ; preds = %126
  %134 = load ptr, ptr %8, align 8, !tbaa !19
  %135 = call i32 @mms_safe_send_recv(ptr noundef %134, ptr noundef @send_media_packet_request, i32 noundef 5)
  store i32 %135, ptr %11, align 4, !tbaa !11
  %136 = load i32, ptr %11, align 4, !tbaa !11
  %137 = icmp ne i32 %136, 0
  br i1 %137, label %138, label %139

138:                                              ; preds = %133
  br label %141

139:                                              ; preds = %133
  %140 = load ptr, ptr %5, align 8, !tbaa !4
  call void (ptr, i32, ptr, ...) @av_log(ptr noundef %140, i32 noundef 56, ptr noundef @.str.4)
  store i32 0, ptr %4, align 4
  store i32 1, ptr %13, align 4
  br label %149

141:                                              ; preds = %138, %132, %125, %111, %104, %93, %87, %81, %75, %69, %63, %53
  %142 = load ptr, ptr %5, align 8, !tbaa !4
  %143 = call i32 @mms_close(ptr noundef %142)
  %144 = load ptr, ptr %9, align 8, !tbaa !22
  %145 = getelementptr inbounds nuw %struct.MMSContext, ptr %144, i32 0, i32 0
  %146 = load ptr, ptr %145, align 8, !tbaa !35
  %147 = load i32, ptr %11, align 4, !tbaa !11
  call void (ptr, i32, ptr, ...) @av_log(ptr noundef %146, i32 noundef 56, ptr noundef @.str.5, i32 noundef %147)
  %148 = load i32, ptr %11, align 4, !tbaa !11
  store i32 %148, ptr %4, align 4
  store i32 1, ptr %13, align 4
  br label %149

149:                                              ; preds = %141, %139
  call void @llvm.lifetime.end.p0(i64 256, ptr %12) #8
  call void @llvm.lifetime.end.p0(i64 4, ptr %11) #8
  call void @llvm.lifetime.end.p0(i64 4, ptr %10) #8
  call void @llvm.lifetime.end.p0(i64 8, ptr %9) #8
  call void @llvm.lifetime.end.p0(i64 8, ptr %8) #8
  %150 = load i32, ptr %4, align 4
  ret i32 %150
}