; Function Attrs: nounwind uwtable
define internal i32 @mms_open(ptr noundef initializes((40, 44)) %0, ptr noundef %1, i32 %2) #0 {
  %4 = alloca i32, align 4
  %5 = alloca [256 x i8], align 16
  %6 = getelementptr inbounds nuw i8, ptr %0, i64 16
  %7 = load ptr, ptr %6, align 8, !tbaa !4
  call void @llvm.lifetime.start.p0(i64 4, ptr nonnull %4) #7
  call void @llvm.lifetime.start.p0(i64 256, ptr nonnull %5) #7
  %8 = getelementptr inbounds nuw i8, ptr %0, i64 40
  store i32 1, ptr %8, align 8, !tbaa !15
  %9 = getelementptr inbounds nuw i8, ptr %7, i64 66380
  %10 = getelementptr inbounds nuw i8, ptr %7, i64 66124
  call void @av_url_split(ptr noundef null, i32 noundef 0, ptr noundef null, i32 noundef 0, ptr noundef nonnull %9, i32 noundef 128, ptr noundef nonnull %4, ptr noundef nonnull %10, i32 noundef 256, ptr noundef %1) #7
  %11 = load i32, ptr %4, align 4, !tbaa !16
  %12 = icmp slt i32 %11, 0
  br i1 %12, label %13, label %14

13:                                               ; preds = %3
  store i32 1755, ptr %4, align 4, !tbaa !16
  br label %14

14:                                               ; preds = %13, %3
  %15 = phi i32 [ 1755, %13 ], [ %11, %3 ]
  %16 = call i32 (ptr, i32, ptr, ptr, ptr, i32, ptr, ...) @ff_url_join(ptr noundef nonnull %5, i32 noundef 256, ptr noundef nonnull @.str.1, ptr noundef null, ptr noundef nonnull %9, i32 noundef %15, ptr noundef null) #7
  %17 = getelementptr inbounds nuw i8, ptr %0, i64 48
  %18 = getelementptr inbounds nuw i8, ptr %0, i64 72
  %19 = load ptr, ptr %18, align 8, !tbaa !17
  %20 = getelementptr inbounds nuw i8, ptr %0, i64 80
  %21 = load ptr, ptr %20, align 8, !tbaa !18
  %22 = call i32 @ffurl_open_whitelist(ptr noundef nonnull %7, ptr noundef nonnull %5, i32 noundef 3, ptr noundef nonnull %17, ptr noundef null, ptr noundef %19, ptr noundef %21, ptr noundef nonnull %0) #7
  %.not = icmp eq i32 %22, 0
  br i1 %.not, label %23, label %59

23:                                               ; preds = %14
  %24 = getelementptr inbounds nuw i8, ptr %7, i64 66516
  store i32 3, ptr %24, align 4, !tbaa !19
  %25 = getelementptr inbounds nuw i8, ptr %7, i64 66520
  store i32 2, ptr %25, align 8, !tbaa !24
  %26 = call fastcc i32 @mms_safe_send_recv(ptr noundef nonnull %7, ptr noundef nonnull @send_startup_packet, i32 noundef 1)
  %.not58 = icmp eq i32 %26, 0
  br i1 %.not58, label %27, label %59

27:                                               ; preds = %23
  %28 = call fastcc i32 @mms_safe_send_recv(ptr noundef nonnull %7, ptr noundef nonnull @send_time_test_data, i32 noundef 21)
  %.not59 = icmp eq i32 %28, 0
  br i1 %.not59, label %29, label %59

29:                                               ; preds = %27
  %30 = call fastcc i32 @mms_safe_send_recv(ptr noundef nonnull %7, ptr noundef nonnull @send_protocol_select, i32 noundef 2)
  %.not60 = icmp eq i32 %30, 0
  br i1 %.not60, label %31, label %59

31:                                               ; preds = %29
  %32 = call fastcc i32 @mms_safe_send_recv(ptr noundef nonnull %7, ptr noundef nonnull @send_media_file_request, i32 noundef 6)
  %.not61 = icmp eq i32 %32, 0
  br i1 %.not61, label %33, label %59

33:                                               ; preds = %31
  %34 = call fastcc i32 @mms_safe_send_recv(ptr noundef nonnull %7, ptr noundef nonnull @send_media_header_request, i32 noundef 17)
  %.not62 = icmp eq i32 %34, 0
  br i1 %.not62, label %35, label %59

35:                                               ; preds = %33
  %36 = call fastcc i32 @mms_safe_send_recv(ptr noundef nonnull %7, ptr noundef null, i32 noundef 65536)
  %.not63 = icmp eq i32 %36, 0
  br i1 %.not63, label %37, label %59

37:                                               ; preds = %35
  %38 = getelementptr inbounds nuw i8, ptr %7, i64 66512
  %39 = load i32, ptr %38, align 8, !tbaa !25
  switch i32 %39, label %40 [
    i32 8, label %41
    i32 12, label %41
  ]

40:                                               ; preds = %37
  call void (ptr, i32, ptr, ...) @av_log(ptr noundef nonnull %0, i32 noundef 16, ptr noundef nonnull @.str.2) #7
  br label %59

41:                                               ; preds = %37, %37
  %42 = call i32 @ff_mms_asf_header_parser(ptr noundef nonnull %7) #7
  %.not66 = icmp eq i32 %42, 0
  br i1 %.not66, label %44, label %43

43:                                               ; preds = %41
  call void (ptr, i32, ptr, ...) @av_log(ptr noundef nonnull %0, i32 noundef 56, ptr noundef nonnull @.str.3) #7
  br label %59

44:                                               ; preds = %41
  %45 = getelementptr inbounds nuw i8, ptr %7, i64 66100
  store i32 1, ptr %45, align 4, !tbaa !26
  %46 = getelementptr inbounds nuw i8, ptr %7, i64 66104
  %47 = load i32, ptr %46, align 8, !tbaa !27
  %.not67 = icmp eq i32 %47, 0
  br i1 %.not67, label %59, label %48

48:                                               ; preds = %44
  %49 = getelementptr inbounds nuw i8, ptr %7, i64 66112
  %50 = load i32, ptr %49, align 8, !tbaa !28
  %.not68 = icmp eq i32 %50, 0
  br i1 %.not68, label %59, label %51

51:                                               ; preds = %48
  %52 = getelementptr inbounds nuw i8, ptr %7, i64 66080
  store i32 0, ptr %52, align 8, !tbaa !29
  %53 = getelementptr inbounds nuw i8, ptr %7, i64 536
  %54 = getelementptr inbounds nuw i8, ptr %7, i64 66072
  store ptr %53, ptr %54, align 8, !tbaa !30
  %55 = call fastcc i32 @mms_safe_send_recv(ptr noundef nonnull %7, ptr noundef nonnull @send_stream_selection_request, i32 noundef 33)
  %.not69 = icmp eq i32 %55, 0
  br i1 %.not69, label %56, label %59

56:                                               ; preds = %51
  %57 = call fastcc i32 @mms_safe_send_recv(ptr noundef nonnull %7, ptr noundef nonnull @send_media_packet_request, i32 noundef 5)
  %.not70 = icmp eq i32 %57, 0
  br i1 %.not70, label %58, label %59

58:                                               ; preds = %56
  call void (ptr, i32, ptr, ...) @av_log(ptr noundef nonnull %0, i32 noundef 56, ptr noundef nonnull @.str.4) #7
  br label %62

59:                                               ; preds = %56, %51, %44, %48, %35, %33, %31, %29, %27, %23, %14, %43, %40
  %.0 = phi i32 [ %22, %14 ], [ %26, %23 ], [ %28, %27 ], [ %30, %29 ], [ %32, %31 ], [ %34, %33 ], [ %36, %35 ], [ -22, %40 ], [ %42, %43 ], [ %55, %51 ], [ %57, %56 ], [ 0, %48 ], [ 0, %44 ]
  %60 = call i32 @mms_close(ptr noundef nonnull %0)
  %61 = load ptr, ptr %7, align 8, !tbaa !31
  call void (ptr, i32, ptr, ...) @av_log(ptr noundef %61, i32 noundef 56, ptr noundef nonnull @.str.5, i32 noundef %.0) #7
  br label %62

62:                                               ; preds = %59, %58
  %.046 = phi i32 [ %.0, %59 ], [ 0, %58 ]
  call void @llvm.lifetime.end.p0(i64 256, ptr nonnull %5) #7
  call void @llvm.lifetime.end.p0(i64 4, ptr nonnull %4) #7
  ret i32 %.046
}